; ModuleID = '6/1822.c'
source_filename = "6/1822.c"
target datalayout = "e-m:e-p270:32:32-p271:32:32-p272:64:64-i64:64-f80:128-n8:16:32:64-S128"
target triple = "x86_64-pc-linux-gnu"

@.str = private unnamed_addr constant [3 x i8] c"%d\00", align 1
@.str.1 = private unnamed_addr constant [6 x i8] c"%d %d\00", align 1
@.str.2 = private unnamed_addr constant [2 x i8] c"\0A\00", align 1

; Function Attrs: noinline nounwind uwtable
define dso_local i32 @main() #0 {
  %1 = alloca i32, align 4
  %2 = alloca i32, align 4
  %3 = alloca i32, align 4
  %4 = alloca i32, align 4
  %5 = alloca i32, align 4
  %6 = alloca i32, align 4
  %7 = alloca i8*, align 8
  %8 = alloca i64, align 8
  %9 = alloca i64, align 8
  %10 = alloca i64, align 8
  %11 = alloca i32, align 4
  %12 = alloca i32, align 4
  %13 = alloca i64, align 8
  %14 = alloca i64, align 8
  store i32 0, i32* %1, align 4
  store i32 100, i32* %2, align 4
  %15 = load i32, i32* %2, align 4
  %16 = zext i32 %15 to i64
  %17 = load i32, i32* %2, align 4
  %18 = zext i32 %17 to i64
  %19 = call i8* @llvm.stacksave()
  store i8* %19, i8** %7, align 8
  %20 = mul nuw i64 %16, %18
  %21 = alloca i32, i64 %20, align 16
  store i64 %16, i64* %8, align 8
  store i64 %18, i64* %9, align 8
  %22 = load i32, i32* %2, align 4
  %23 = zext i32 %22 to i64
  %24 = alloca i32, i64 %23, align 16
  store i64 %23, i64* %10, align 8
  %25 = load i32, i32* %2, align 4
  %26 = zext i32 %25 to i64
  %27 = alloca i32, i64 %26, align 16
  store i64 %26, i64* %13, align 8
  %28 = load i32, i32* %2, align 4
  %29 = zext i32 %28 to i64
  %30 = alloca i32, i64 %29, align 16
  store i64 %29, i64* %14, align 8
  %31 = call i32 (i8*, ...) @__isoc99_scanf(i8* getelementptr inbounds ([3 x i8], [3 x i8]* @.str, i64 0, i64 0), i32* %3)
  store i32 0, i32* %6, align 4
  br label %32

32:                                               ; preds = %154, %0
  %33 = load i32, i32* %6, align 4
  %34 = load i32, i32* %3, align 4
  %35 = icmp slt i32 %33, %34
  br i1 %35, label %36, label %157

36:                                               ; preds = %32
  %37 = load i32, i32* %6, align 4
  %38 = sext i32 %37 to i64
  %39 = getelementptr inbounds i32, i32* %24, i64 %38
  store i32 0, i32* %39, align 4
  %40 = load i32, i32* %6, align 4
  %41 = sext i32 %40 to i64
  %42 = getelementptr inbounds i32, i32* %27, i64 %41
  %43 = load i32, i32* %6, align 4
  %44 = sext i32 %43 to i64
  %45 = getelementptr inbounds i32, i32* %30, i64 %44
  %46 = call i32 (i8*, ...) @__isoc99_scanf(i8* getelementptr inbounds ([6 x i8], [6 x i8]* @.str.1, i64 0, i64 0), i32* %42, i32* %45)
  %47 = load i32, i32* %6, align 4
  %48 = sext i32 %47 to i64
  %49 = getelementptr inbounds i32, i32* %27, i64 %48
  %50 = load i32, i32* %49, align 4
  store i32 %50, i32* %4, align 4
  %51 = load i32, i32* %6, align 4
  %52 = sext i32 %51 to i64
  %53 = getelementptr inbounds i32, i32* %30, i64 %52
  %54 = load i32, i32* %53, align 4
  store i32 %54, i32* %5, align 4
  store i32 0, i32* %11, align 4
  br label %55

55:                                               ; preds = %77, %36
  %56 = load i32, i32* %11, align 4
  %57 = load i32, i32* %4, align 4
  %58 = icmp slt i32 %56, %57
  br i1 %58, label %59, label %80

59:                                               ; preds = %55
  store i32 0, i32* %12, align 4
  br label %60

60:                                               ; preds = %73, %59
  %61 = load i32, i32* %12, align 4
  %62 = load i32, i32* %5, align 4
  %63 = icmp slt i32 %61, %62
  br i1 %63, label %64, label %76

64:                                               ; preds = %60
  %65 = load i32, i32* %11, align 4
  %66 = sext i32 %65 to i64
  %67 = mul nsw i64 %66, %18
  %68 = getelementptr inbounds i32, i32* %21, i64 %67
  %69 = load i32, i32* %12, align 4
  %70 = sext i32 %69 to i64
  %71 = getelementptr inbounds i32, i32* %68, i64 %70
  %72 = call i32 (i8*, ...) @__isoc99_scanf(i8* getelementptr inbounds ([3 x i8], [3 x i8]* @.str, i64 0, i64 0), i32* %71)
  br label %73

73:                                               ; preds = %64
  %74 = load i32, i32* %12, align 4
  %75 = add nsw i32 %74, 1
  store i32 %75, i32* %12, align 4
  br label %60

76:                                               ; preds = %60
  br label %77

77:                                               ; preds = %76
  %78 = load i32, i32* %11, align 4
  %79 = add nsw i32 %78, 1
  store i32 %79, i32* %11, align 4
  br label %55

80:                                               ; preds = %55
  store i32 0, i32* %11, align 4
  br label %81

81:                                               ; preds = %110, %80
  %82 = load i32, i32* %11, align 4
  %83 = load i32, i32* %4, align 4
  %84 = icmp slt i32 %82, %83
  br i1 %84, label %85, label %113

85:                                               ; preds = %81
  %86 = load i32, i32* %6, align 4
  %87 = sext i32 %86 to i64
  %88 = getelementptr inbounds i32, i32* %24, i64 %87
  %89 = load i32, i32* %88, align 4
  %90 = load i32, i32* %11, align 4
  %91 = sext i32 %90 to i64
  %92 = mul nsw i64 %91, %18
  %93 = getelementptr inbounds i32, i32* %21, i64 %92
  %94 = getelementptr inbounds i32, i32* %93, i64 0
  %95 = load i32, i32* %94, align 4
  %96 = add nsw i32 %89, %95
  %97 = load i32, i32* %11, align 4
  %98 = sext i32 %97 to i64
  %99 = mul nsw i64 %98, %18
  %100 = getelementptr inbounds i32, i32* %21, i64 %99
  %101 = load i32, i32* %5, align 4
  %102 = sub nsw i32 %101, 1
  %103 = sext i32 %102 to i64
  %104 = getelementptr inbounds i32, i32* %100, i64 %103
  %105 = load i32, i32* %104, align 4
  %106 = add nsw i32 %96, %105
  %107 = load i32, i32* %6, align 4
  %108 = sext i32 %107 to i64
  %109 = getelementptr inbounds i32, i32* %24, i64 %108
  store i32 %106, i32* %109, align 4
  br label %110

110:                                              ; preds = %85
  %111 = load i32, i32* %11, align 4
  %112 = add nsw i32 %111, 1
  store i32 %112, i32* %11, align 4
  br label %81

113:                                              ; preds = %81
  store i32 1, i32* %12, align 4
  br label %114

114:                                              ; preds = %144, %113
  %115 = load i32, i32* %12, align 4
  %116 = load i32, i32* %5, align 4
  %117 = sub nsw i32 %116, 1
  %118 = icmp slt i32 %115, %117
  br i1 %118, label %119, label %147

119:                                              ; preds = %114
  %120 = load i32, i32* %6, align 4
  %121 = sext i32 %120 to i64
  %122 = getelementptr inbounds i32, i32* %24, i64 %121
  %123 = load i32, i32* %122, align 4
  %124 = mul nsw i64 0, %18
  %125 = getelementptr inbounds i32, i32* %21, i64 %124
  %126 = load i32, i32* %12, align 4
  %127 = sext i32 %126 to i64
  %128 = getelementptr inbounds i32, i32* %125, i64 %127
  %129 = load i32, i32* %128, align 4
  %130 = add nsw i32 %123, %129
  %131 = load i32, i32* %4, align 4
  %132 = sub nsw i32 %131, 1
  %133 = sext i32 %132 to i64
  %134 = mul nsw i64 %133, %18
  %135 = getelementptr inbounds i32, i32* %21, i64 %134
  %136 = load i32, i32* %12, align 4
  %137 = sext i32 %136 to i64
  %138 = getelementptr inbounds i32, i32* %135, i64 %137
  %139 = load i32, i32* %138, align 4
  %140 = add nsw i32 %130, %139
  %141 = load i32, i32* %6, align 4
  %142 = sext i32 %141 to i64
  %143 = getelementptr inbounds i32, i32* %24, i64 %142
  store i32 %140, i32* %143, align 4
  br label %144

144:                                              ; preds = %119
  %145 = load i32, i32* %12, align 4
  %146 = add nsw i32 %145, 1
  store i32 %146, i32* %12, align 4
  br label %114

147:                                              ; preds = %114
  %148 = load i32, i32* %6, align 4
  %149 = sext i32 %148 to i64
  %150 = getelementptr inbounds i32, i32* %24, i64 %149
  %151 = load i32, i32* %150, align 4
  %152 = call i32 (i8*, ...) @printf(i8* getelementptr inbounds ([3 x i8], [3 x i8]* @.str, i64 0, i64 0), i32 %151)
  %153 = call i32 (i8*, ...) @printf(i8* getelementptr inbounds ([2 x i8], [2 x i8]* @.str.2, i64 0, i64 0))
  br label %154

154:                                              ; preds = %147
  %155 = load i32, i32* %6, align 4
  %156 = add nsw i32 %155, 1
  store i32 %156, i32* %6, align 4
  br label %32

157:                                              ; preds = %32
  store i32 0, i32* %1, align 4
  %158 = load i8*, i8** %7, align 8
  call void @llvm.stackrestore(i8* %158)
  %159 = load i32, i32* %1, align 4
  ret i32 %159
}

; Function Attrs: nounwind
declare i8* @llvm.stacksave() #1

declare dso_local i32 @__isoc99_scanf(i8*, ...) #2

declare dso_local i32 @printf(i8*, ...) #2

; Function Attrs: nounwind
declare void @llvm.stackrestore(i8*) #1


!llvm.module.flags = !{!0}
!llvm.ident = !{!1}

!0 = !{i32 1, !"wchar_size", i32 4}
!1 = !{!"clang version 10.0.0-4ubuntu1 "}
